target datalayout = "e-m:e-p270:32:32-p271:32:32-p272:64:64-i64:64-i128:128-f80:128-n8:16:32:64-S128"
target triple = "x86_64-pc-linux-gnu"

%struct.AppendState = type { %struct.PlanState, ptr, i32, i32, i8, ptr, i32, ptr, ptr, i32, i8, i32, ptr, ptr, i32, ptr, i64, ptr, i8, ptr, ptr, ptr }
%struct.PlanState = type { i32, ptr, ptr, ptr, ptr, ptr, ptr, ptr, ptr, ptr, ptr, ptr, ptr, ptr, ptr, ptr, ptr, ptr, i8, ptr, ptr, ptr, ptr, ptr, i8, i8, i8, i8, i8, i8, i8, i8 }
%struct.Plan = type { i32, i32, double, double, double, i32, i8, i8, i8, i32, ptr, ptr, ptr, ptr, ptr, ptr, ptr }
%struct.ParallelContext = type { %struct.dlist_node, i32, i32, i32, i32, ptr, ptr, ptr, %struct.shm_toc_estimator, ptr, ptr, ptr, ptr, i32, ptr }
%struct.dlist_node = type { ptr, ptr }
%struct.shm_toc_estimator = type { i64, i64 }
%struct.ParallelAppendState = type { %struct.LWLock, i32, [0 x i8] }
%struct.LWLock = type { i16, %struct.pg_atomic_uint32, %struct.proclist_head }
%struct.pg_atomic_uint32 = type { i32 }
%struct.proclist_head = type { i32, i32 }

; Function Attrs: nounwind uwtable
define dso_local void @ExecAppendInitializeDSM(ptr noundef %0, ptr noundef %1) #0 {
  %3 = alloca ptr, align 8
  %4 = alloca ptr, align 8
  %5 = alloca ptr, align 8
  store ptr %0, ptr %3, align 8
  store ptr %1, ptr %4, align 8
  call void @llvm.lifetime.start.p0(i64 8, ptr %5) #6
  %6 = load ptr, ptr %4, align 8
  %7 = getelementptr inbounds nuw %struct.ParallelContext, ptr %6, i32 0, i32 11
  %8 = load ptr, ptr %7, align 8
  %9 = load ptr, ptr %3, align 8
  %10 = getelementptr inbounds nuw %struct.AppendState, ptr %9, i32 0, i32 16
  %11 = load i64, ptr %10, align 8
  %12 = call ptr @shm_toc_allocate(ptr noundef %8, i64 noundef %11)
  store ptr %12, ptr %5, align 8
  %13 = load ptr, ptr %5, align 8
  %14 = load ptr, ptr %3, align 8
  %15 = getelementptr inbounds nuw %struct.AppendState, ptr %14, i32 0, i32 16
  %16 = load i64, ptr %15, align 8
  call void @llvm.memset.p0.i64(ptr align 4 %13, i8 0, i64 %16, i1 false)
  %17 = load ptr, ptr %5, align 8
  %18 = getelementptr inbounds nuw %struct.ParallelAppendState, ptr %17, i32 0, i32 0
  call void @LWLockInitialize(ptr noundef %18, i32 noundef 75)
  %19 = load ptr, ptr %4, align 8
  %20 = getelementptr inbounds nuw %struct.ParallelContext, ptr %19, i32 0, i32 11
  %21 = load ptr, ptr %20, align 8
  %22 = load ptr, ptr %3, align 8
  %23 = getelementptr inbounds nuw %struct.AppendState, ptr %22, i32 0, i32 0
  %24 = getelementptr inbounds nuw %struct.PlanState, ptr %23, i32 0, i32 1
  %25 = load ptr, ptr %24, align 8
  %26 = getelementptr inbounds nuw %struct.Plan, ptr %25, i32 0, i32 9
  %27 = load i32, ptr %26, align 8
  %28 = sext i32 %27 to i64
  %29 = load ptr, ptr %5, align 8
  call void @shm_toc_insert(ptr noundef %21, i64 noundef %28, ptr noundef %29)
  %30 = load ptr, ptr %5, align 8
  %31 = load ptr, ptr %3, align 8
  %32 = getelementptr inbounds nuw %struct.AppendState, ptr %31, i32 0, i32 15
  store ptr %30, ptr %32, align 8
  %33 = load ptr, ptr %3, align 8
  %34 = getelementptr inbounds nuw %struct.AppendState, ptr %33, i32 0, i32 21
  store ptr @choose_next_subplan_for_leader, ptr %34, align 8
  call void @llvm.lifetime.end.p0(i64 8, ptr %5) #6
  ret void
}