; Function Attrs: nounwind uwtable
define dso_local void @ExecAppendInitializeDSM(ptr noundef captures(none) initializes((296, 304), (344, 352)) %0, ptr noundef readonly captures(none) %1) local_unnamed_addr #0 {
  %3 = getelementptr inbounds nuw i8, ptr %1, i64 88
  %4 = load ptr, ptr %3, align 8
  %5 = getelementptr inbounds nuw i8, ptr %0, i64 304
  %6 = load i64, ptr %5, align 8
  %7 = tail call ptr @shm_toc_allocate(ptr noundef %4, i64 noundef %6) #6
  %8 = load i64, ptr %5, align 8
  tail call void @llvm.memset.p0.i64(ptr align 4 %7, i8 0, i64 %8, i1 false)
  tail call void @LWLockInitialize(ptr noundef %7, i32 noundef 75) #6
  %9 = load ptr, ptr %3, align 8
  %10 = getelementptr inbounds nuw i8, ptr %0, i64 8
  %11 = load ptr, ptr %10, align 8
  %12 = getelementptr inbounds nuw i8, ptr %11, i64 40
  %13 = load i32, ptr %12, align 8
  %14 = sext i32 %13 to i64
  tail call void @shm_toc_insert(ptr noundef %9, i64 noundef %14, ptr noundef %7) #6
  %15 = getelementptr inbounds nuw i8, ptr %0, i64 296
  store ptr %7, ptr %15, align 8
  %16 = getelementptr inbounds nuw i8, ptr %0, i64 344
  store ptr @choose_next_subplan_for_leader, ptr %16, align 8
  ret void
}